; Function Attrs: nounwind sspstrong uwtable
define internal i64 @ossl_x509_to_der(i64 noundef %0) #0 {
  %2 = alloca ptr, align 8
  call void @llvm.lifetime.start.p0(i64 8, ptr nonnull %2) #5
  %3 = tail call ptr @rb_check_typeddata(i64 noundef %0, ptr noundef nonnull @ossl_x509_type) #5
  %.not = icmp eq ptr %3, null
  br i1 %.not, label %4, label %6

4:                                                ; preds = %1
  %5 = load i64, ptr @rb_eRuntimeError, align 8, !tbaa !6
  tail call void (i64, ptr, ...) @ossl_raise(i64 noundef %5, ptr noundef nonnull @.str) #6
  unreachable

6:                                                ; preds = %1
  %7 = tail call i32 @i2d_X509(ptr noundef nonnull %3, ptr noundef null) #5
  %8 = icmp slt i32 %7, 1
  br i1 %8, label %9, label %11

9:                                                ; preds = %6
  %10 = load i64, ptr @eX509CertError, align 8, !tbaa !6
  tail call void (i64, ptr, ...) @ossl_raise(i64 noundef %10, ptr noundef null) #6
  unreachable

11:                                               ; preds = %6
  %12 = zext nneg i32 %7 to i64
  %13 = tail call i64 @rb_str_new(ptr noundef null, i64 noundef %12) #5, !callees !21
  %14 = inttoptr i64 %13 to ptr
  %15 = load i64, ptr %14, align 8, !tbaa !16, !noalias !22
  %16 = and i64 %15, 8192
  %.not.i.i = icmp eq i64 %16, 0
  %17 = getelementptr inbounds nuw i8, ptr %14, i64 24
  br i1 %.not.i.i, label %RSTRING_PTR.exit, label %18

18:                                               ; preds = %11
  %.sroa.2.0.copyload.i = load ptr, ptr %17, align 8
  br label %RSTRING_PTR.exit

RSTRING_PTR.exit:                                 ; preds = %11, %18
  %.sroa.2.0.i = phi ptr [ %.sroa.2.0.copyload.i, %18 ], [ %17, %11 ]
  store ptr %.sroa.2.0.i, ptr %2, align 8, !tbaa !25
  %19 = call i32 @i2d_X509(ptr noundef nonnull %3, ptr noundef nonnull %2) #5
  %20 = icmp slt i32 %19, 1
  br i1 %20, label %21, label %23

21:                                               ; preds = %RSTRING_PTR.exit
  %22 = load i64, ptr @eX509CertError, align 8, !tbaa !6
  call void (i64, ptr, ...) @ossl_raise(i64 noundef %22, ptr noundef null) #6
  unreachable

23:                                               ; preds = %RSTRING_PTR.exit
  %24 = load ptr, ptr %2, align 8, !tbaa !25
  %25 = load i64, ptr %14, align 8, !tbaa !16, !noalias !27
  %26 = and i64 %25, 8192
  %.not.i.i11 = icmp eq i64 %26, 0
  br i1 %.not.i.i11, label %RSTRING_PTR.exit14, label %27

27:                                               ; preds = %23
  %.sroa.2.0.copyload.i12 = load ptr, ptr %17, align 8
  br label %RSTRING_PTR.exit14

RSTRING_PTR.exit14:                               ; preds = %23, %27
  %.sroa.2.0.i13 = phi ptr [ %.sroa.2.0.copyload.i12, %27 ], [ %17, %23 ]
  %28 = ptrtoint ptr %24 to i64
  %29 = ptrtoint ptr %.sroa.2.0.i13 to i64
  %30 = sub i64 %28, %29
  call void @rb_str_set_len(i64 noundef %13, i64 noundef %30) #5
  call void @llvm.lifetime.end.p0(i64 8, ptr nonnull %2) #5
  ret i64 %13
}